; Function Attrs: nounwind uwtable
define internal fastcc range(i32 0, 2) i32 @map_raw(ptr noundef %0, ptr noundef %1, i32 noundef %2, ptr noundef nonnull writeonly captures(none) %3) unnamed_addr #0 {
  %5 = tail call i32 @llvm.umin.i32(i32 %2, i32 63)
  %6 = zext nneg i32 %5 to i64
  %7 = getelementptr inbounds nuw i8, ptr %0, i64 104
  %8 = load ptr, ptr %7, align 8, !tbaa !19
  %9 = getelementptr i8, ptr %0, i64 16
  %.val.i = load ptr, ptr %9, align 8, !tbaa !20
  %10 = getelementptr i8, ptr %0, i64 72
  %.val4.i = load i64, ptr %10, align 8, !tbaa !21
  %11 = ptrtoint ptr %1 to i64
  %12 = ptrtoint ptr %.val.i to i64
  %13 = add i64 %.val4.i, %12
  %14 = sub i64 %11, %13
  %15 = tail call ptr %8(ptr noundef %0, i64 noundef %14, i64 noundef range(i64 0, 4294967296) %6, i32 noundef 0) #11
  %.not = icmp eq ptr %15, null
  br i1 %.not, label %16, label %17

16:                                               ; preds = %4
  tail call void (ptr, ...) @cli_dbgmsg(ptr noundef nonnull @.str.184) #11
  br label %21

17:                                               ; preds = %4
  %18 = getelementptr inbounds nuw i8, ptr %3, i64 1
  tail call void @llvm.memset.p0.i64(ptr noundef nonnull align 1 dereferenceable(64) %18, i8 0, i64 63, i1 false)
  %19 = trunc nuw nsw i32 %5 to i8
  store i8 %19, ptr %3, align 1, !tbaa !22
  %20 = getelementptr inbounds nuw i8, ptr %3, i64 1
  tail call void @llvm.memcpy.p0.p0.i64(ptr nonnull align 1 %20, ptr align 1 %1, i64 %6, i1 false)
  br label %21

21:                                               ; preds = %17, %16
  %.0 = phi i32 [ 0, %17 ], [ 1, %16 ]
  ret i32 %.0
}